target datalayout = "e-m:e-p270:32:32-p271:32:32-p272:64:64-i64:64-i128:128-f80:128-n8:16:32:64-S128"
target triple = "x86_64-pc-linux-gnu"

; Function Attrs: null_pointer_is_valid sspstrong uwtable
define internal i32 @dissect_tcpip_set_port_admin_state(ptr noundef %0, ptr noundef %1, ptr noundef %2, ptr noundef %3, i32 noundef %4, i1 noundef zeroext %5) #0 {
  %7 = alloca i32, align 4
  %8 = alloca ptr, align 8
  %9 = alloca ptr, align 8
  %10 = alloca ptr, align 8
  %11 = alloca ptr, align 8
  %12 = alloca i32, align 4
  %13 = alloca i8, align 1
  store ptr %0, ptr %8, align 8
  store ptr %1, ptr %9, align 8
  store ptr %2, ptr %10, align 8
  store ptr %3, ptr %11, align 8
  store i32 %4, ptr %12, align 4
  %14 = zext i1 %5 to i8
  store i8 %14, ptr %13, align 1
  %15 = load i8, ptr %13, align 1, !range !9, !noundef !10
  %16 = trunc i8 %15 to i1
  br i1 %16, label %17, label %24

17:                                               ; preds = %6
  %18 = load ptr, ptr %8, align 8
  %19 = load ptr, ptr %9, align 8
  %20 = load ptr, ptr %10, align 8
  %21 = load ptr, ptr %11, align 8
  %22 = load i32, ptr %12, align 4
  %23 = call i32 @dissect_tcpip_port_information(ptr noundef %18, ptr noundef %19, ptr noundef %20, ptr noundef %21, i32 noundef %22, i1 noundef zeroext false)
  store i32 %23, ptr %7, align 4
  br label %25

24:                                               ; preds = %6
  store i32 0, ptr %7, align 4
  br label %25

25:                                               ; preds = %24, %17
  %26 = load i32, ptr %7, align 4
  ret i32 %26
}