; Function Attrs: null_pointer_is_valid sspstrong uwtable
define internal noundef i32 @dissect_tcpip_set_port_admin_state(ptr noundef %0, ptr noundef %1, ptr noundef %2, ptr noundef %3, i32 noundef %4, i1 noundef zeroext %5) #0 {
  br i1 %5, label %7, label %9

7:                                                ; preds = %6
  %8 = tail call fastcc i32 @dissect_tcpip_port_information(ptr noundef %0, ptr noundef %1, ptr noundef %2, ptr noundef %3, i32 noundef %4, i1 noundef zeroext false)
  br label %9

9:                                                ; preds = %6, %7
  %.0 = phi i32 [ %8, %7 ], [ 0, %6 ]
  ret i32 %.0
}